; Function Attrs: mustprogress nounwind uwtable
define internal void @"_ZN4node13CallbackQueueIvJPNS_11EnvironmentEEE12CallbackImplIZNS_6crypto7TLSWrap6EncOutEvE3$_0ED2Ev"(ptr nocapture noundef nonnull align 8 dereferenceable(40) %this) unnamed_addr #3 align 2 {
entry:
  %0 = getelementptr inbounds i8, ptr %this, i64 32
  %callback_.val = load ptr, ptr %0, align 8
  %cmp.not.i.i = icmp eq ptr %callback_.val, null
  br i1 %cmp.not.i.i, label %"_ZZN4node6crypto7TLSWrap6EncOutEvEN3$_0D2Ev.exit", label %if.then.i.i

if.then.i.i:                                      ; preds = %entry
  tail call void @_ZN4node10BaseObject17decrease_refcountEv(ptr noundef nonnull align 8 dereferenceable(32) %callback_.val) #23
  br label %"_ZZN4node6crypto7TLSWrap6EncOutEvEN3$_0D2Ev.exit"

"_ZZN4node6crypto7TLSWrap6EncOutEvEN3$_0D2Ev.exit": ; preds = %entry, %if.then.i.i
  store ptr getelementptr inbounds ({ [5 x ptr] }, ptr @_ZTVN4node13CallbackQueueIvJPNS_11EnvironmentEEE8CallbackE, i64 0, i32 0, i64 2), ptr %this, align 8
  %next_.i = getelementptr inbounds i8, ptr %this, i64 16
  %1 = load ptr, ptr %next_.i, align 8
  %cmp.not.i.i1 = icmp eq ptr %1, null
  br i1 %cmp.not.i.i1, label %_ZN4node13CallbackQueueIvJPNS_11EnvironmentEEE8CallbackD2Ev.exit, label %_ZNKSt14default_deleteIN4node13CallbackQueueIvJPNS0_11EnvironmentEEE8CallbackEEclEPS5_.exit.i.i

_ZNKSt14default_deleteIN4node13CallbackQueueIvJPNS0_11EnvironmentEEE8CallbackEEclEPS5_.exit.i.i: ; preds = %"_ZZN4node6crypto7TLSWrap6EncOutEvEN3$_0D2Ev.exit"
  %vtable.i.i.i = load ptr, ptr %1, align 8
  %vfn.i.i.i = getelementptr inbounds i8, ptr %vtable.i.i.i, i64 8
  %2 = load ptr, ptr %vfn.i.i.i, align 8
  tail call void %2(ptr noundef nonnull align 8 dereferenceable(24) %1) #23
  br label %_ZN4node13CallbackQueueIvJPNS_11EnvironmentEEE8CallbackD2Ev.exit

_ZN4node13CallbackQueueIvJPNS_11EnvironmentEEE8CallbackD2Ev.exit: ; preds = %"_ZZN4node6crypto7TLSWrap6EncOutEvEN3$_0D2Ev.exit", %_ZNKSt14default_deleteIN4node13CallbackQueueIvJPNS0_11EnvironmentEEE8CallbackEEclEPS5_.exit.i.i
  store ptr null, ptr %next_.i, align 8
  ret void
}